target datalayout = "e-m:e-p270:32:32-p271:32:32-p272:64:64-i64:64-i128:128-f80:128-n8:16:32:64-S128"
target triple = "x86_64-pc-linux-gnu"

@.str.12 = private unnamed_addr constant [161 x i8] c"generated/home/dtcxzyw/WorkSpace/Projects/compilers/llvm-opt-benchmark/bench/open3d/Open3D/cpp/open3d/visualization/visualizer/VisualizerWithCustomAnimation.cpp\00", align 1
@__PRETTY_FUNCTION__._ZN6open3d13visualization29VisualizerWithCustomAnimation19PrintVisualizerHelpEv = private unnamed_addr constant [89 x i8] c"virtual void open3d::visualization::VisualizerWithCustomAnimation::PrintVisualizerHelp()\00", align 1
@.str.13 = private unnamed_addr constant [26 x i8] c"  -- Animation control --\00", align 1
@.str.14 = private unnamed_addr constant [50 x i8] c"    Ctrl + F     : Enter freeview (editing) mode.\00", align 1
@.str.15 = private unnamed_addr constant [39 x i8] c"    Ctrl + W     : Enter preview mode.\00", align 1
@.str.16 = private unnamed_addr constant [75 x i8] c"    Ctrl + P     : Enter animation mode and play animation from beginning.\00", align 1
@.str.17 = private unnamed_addr constant [76 x i8] c"    Ctrl + R     : Enter animation mode, play animation, and record screen.\00", align 1
@.str.18 = private unnamed_addr constant [75 x i8] c"    Ctrl + G     : Enter animation mode, play animation, and record depth.\00", align 1
@.str.19 = private unnamed_addr constant [58 x i8] c"    Ctrl + S     : Save the camera path into a json file.\00", align 1
@.str.20 = private unnamed_addr constant [1 x i8] zeroinitializer, align 1
@.str.21 = private unnamed_addr constant [28 x i8] c"    -- In free view mode --\00", align 1
@.str.22 = private unnamed_addr constant [51 x i8] c"    Ctrl + <-/-> : Go backward/forward a keyframe.\00", align 1
@.str.23 = private unnamed_addr constant [41 x i8] c"    Ctrl + Wheel : Same as Ctrl + <-/->.\00", align 1
@.str.24 = private unnamed_addr constant [50 x i8] c"    Ctrl + [/]   : Go to the first/last keyframe.\00", align 1
@.str.25 = private unnamed_addr constant [65 x i8] c"    Ctrl + +/-   : Increase/decrease interval between keyframes.\00", align 1
@.str.26 = private unnamed_addr constant [54 x i8] c"    Ctrl + L     : Turn on/off camera path as a loop.\00", align 1
@.str.27 = private unnamed_addr constant [68 x i8] c"    Ctrl + A     : Add a keyframe right after the current keyframe.\00", align 1
@.str.28 = private unnamed_addr constant [48 x i8] c"    Ctrl + U     : Update the current keyframe.\00", align 1
@.str.29 = private unnamed_addr constant [48 x i8] c"    Ctrl + D     : Delete the current keyframe.\00", align 1
@.str.30 = private unnamed_addr constant [66 x i8] c"    Ctrl + N     : Add 360 spin right after the current keyframe.\00", align 1
@.str.31 = private unnamed_addr constant [49 x i8] c"    Ctrl + E     : Erase the entire camera path.\00", align 1
@.str.32 = private unnamed_addr constant [26 x i8] c"    -- In preview mode --\00", align 1
@.str.33 = private unnamed_addr constant [48 x i8] c"    Ctrl + <-/-> : Go backward/forward a frame.\00", align 1
@.str.34 = private unnamed_addr constant [59 x i8] c"    Ctrl + [/]   : Go to beginning/end of the camera path.\00", align 1

; Function Attrs: mustprogress ssp uwtable
define void @_ZN6open3d13visualization29VisualizerWithCustomAnimation19PrintVisualizerHelpEv(ptr noundef nonnull align 8 dereferenceable(656) %0) unnamed_addr #2 align 2 {
  %2 = alloca ptr, align 8
  store ptr %0, ptr %2, align 8, !tbaa !4
  %3 = load ptr, ptr %2, align 8
  call void @_ZN6open3d13visualization10Visualizer19PrintVisualizerHelpEv(ptr noundef nonnull align 8 dereferenceable(456) %3)
  call void @_ZN6open3d7utility6Logger8LogInfo_IJEEEvPKciS4_S4_DpOT_(ptr noundef @.str.12, i32 noundef 29, ptr noundef @__PRETTY_FUNCTION__._ZN6open3d13visualization29VisualizerWithCustomAnimation19PrintVisualizerHelpEv, ptr noundef @.str.13)
  call void @_ZN6open3d7utility6Logger8LogInfo_IJEEEvPKciS4_S4_DpOT_(ptr noundef @.str.12, i32 noundef 30, ptr noundef @__PRETTY_FUNCTION__._ZN6open3d13visualization29VisualizerWithCustomAnimation19PrintVisualizerHelpEv, ptr noundef @.str.14)
  call void @_ZN6open3d7utility6Logger8LogInfo_IJEEEvPKciS4_S4_DpOT_(ptr noundef @.str.12, i32 noundef 31, ptr noundef @__PRETTY_FUNCTION__._ZN6open3d13visualization29VisualizerWithCustomAnimation19PrintVisualizerHelpEv, ptr noundef @.str.15)
  call void @_ZN6open3d7utility6Logger8LogInfo_IJEEEvPKciS4_S4_DpOT_(ptr noundef @.str.12, i32 noundef 32, ptr noundef @__PRETTY_FUNCTION__._ZN6open3d13visualization29VisualizerWithCustomAnimation19PrintVisualizerHelpEv, ptr noundef @.str.16)
  call void @_ZN6open3d7utility6Logger8LogInfo_IJEEEvPKciS4_S4_DpOT_(ptr noundef @.str.12, i32 noundef 33, ptr noundef @__PRETTY_FUNCTION__._ZN6open3d13visualization29VisualizerWithCustomAnimation19PrintVisualizerHelpEv, ptr noundef @.str.17)
  call void @_ZN6open3d7utility6Logger8LogInfo_IJEEEvPKciS4_S4_DpOT_(ptr noundef @.str.12, i32 noundef 34, ptr noundef @__PRETTY_FUNCTION__._ZN6open3d13visualization29VisualizerWithCustomAnimation19PrintVisualizerHelpEv, ptr noundef @.str.18)
  call void @_ZN6open3d7utility6Logger8LogInfo_IJEEEvPKciS4_S4_DpOT_(ptr noundef @.str.12, i32 noundef 35, ptr noundef @__PRETTY_FUNCTION__._ZN6open3d13visualization29VisualizerWithCustomAnimation19PrintVisualizerHelpEv, ptr noundef @.str.19)
  call void @_ZN6open3d7utility6Logger8LogInfo_IJEEEvPKciS4_S4_DpOT_(ptr noundef @.str.12, i32 noundef 36, ptr noundef @__PRETTY_FUNCTION__._ZN6open3d13visualization29VisualizerWithCustomAnimation19PrintVisualizerHelpEv, ptr noundef @.str.20)
  call void @_ZN6open3d7utility6Logger8LogInfo_IJEEEvPKciS4_S4_DpOT_(ptr noundef @.str.12, i32 noundef 37, ptr noundef @__PRETTY_FUNCTION__._ZN6open3d13visualization29VisualizerWithCustomAnimation19PrintVisualizerHelpEv, ptr noundef @.str.21)
  call void @_ZN6open3d7utility6Logger8LogInfo_IJEEEvPKciS4_S4_DpOT_(ptr noundef @.str.12, i32 noundef 38, ptr noundef @__PRETTY_FUNCTION__._ZN6open3d13visualization29VisualizerWithCustomAnimation19PrintVisualizerHelpEv, ptr noundef @.str.22)
  call void @_ZN6open3d7utility6Logger8LogInfo_IJEEEvPKciS4_S4_DpOT_(ptr noundef @.str.12, i32 noundef 39, ptr noundef @__PRETTY_FUNCTION__._ZN6open3d13visualization29VisualizerWithCustomAnimation19PrintVisualizerHelpEv, ptr noundef @.str.23)
  call void @_ZN6open3d7utility6Logger8LogInfo_IJEEEvPKciS4_S4_DpOT_(ptr noundef @.str.12, i32 noundef 40, ptr noundef @__PRETTY_FUNCTION__._ZN6open3d13visualization29VisualizerWithCustomAnimation19PrintVisualizerHelpEv, ptr noundef @.str.24)
  call void @_ZN6open3d7utility6Logger8LogInfo_IJEEEvPKciS4_S4_DpOT_(ptr noundef @.str.12, i32 noundef 41, ptr noundef @__PRETTY_FUNCTION__._ZN6open3d13visualization29VisualizerWithCustomAnimation19PrintVisualizerHelpEv, ptr noundef @.str.25)
  call void @_ZN6open3d7utility6Logger8LogInfo_IJEEEvPKciS4_S4_DpOT_(ptr noundef @.str.12, i32 noundef 42, ptr noundef @__PRETTY_FUNCTION__._ZN6open3d13visualization29VisualizerWithCustomAnimation19PrintVisualizerHelpEv, ptr noundef @.str.26)
  call void @_ZN6open3d7utility6Logger8LogInfo_IJEEEvPKciS4_S4_DpOT_(ptr noundef @.str.12, i32 noundef 43, ptr noundef @__PRETTY_FUNCTION__._ZN6open3d13visualization29VisualizerWithCustomAnimation19PrintVisualizerHelpEv, ptr noundef @.str.27)
  call void @_ZN6open3d7utility6Logger8LogInfo_IJEEEvPKciS4_S4_DpOT_(ptr noundef @.str.12, i32 noundef 44, ptr noundef @__PRETTY_FUNCTION__._ZN6open3d13visualization29VisualizerWithCustomAnimation19PrintVisualizerHelpEv, ptr noundef @.str.28)
  call void @_ZN6open3d7utility6Logger8LogInfo_IJEEEvPKciS4_S4_DpOT_(ptr noundef @.str.12, i32 noundef 45, ptr noundef @__PRETTY_FUNCTION__._ZN6open3d13visualization29VisualizerWithCustomAnimation19PrintVisualizerHelpEv, ptr noundef @.str.29)
  call void @_ZN6open3d7utility6Logger8LogInfo_IJEEEvPKciS4_S4_DpOT_(ptr noundef @.str.12, i32 noundef 46, ptr noundef @__PRETTY_FUNCTION__._ZN6open3d13visualization29VisualizerWithCustomAnimation19PrintVisualizerHelpEv, ptr noundef @.str.30)
  call void @_ZN6open3d7utility6Logger8LogInfo_IJEEEvPKciS4_S4_DpOT_(ptr noundef @.str.12, i32 noundef 47, ptr noundef @__PRETTY_FUNCTION__._ZN6open3d13visualization29VisualizerWithCustomAnimation19PrintVisualizerHelpEv, ptr noundef @.str.31)
  call void @_ZN6open3d7utility6Logger8LogInfo_IJEEEvPKciS4_S4_DpOT_(ptr noundef @.str.12, i32 noundef 48, ptr noundef @__PRETTY_FUNCTION__._ZN6open3d13visualization29VisualizerWithCustomAnimation19PrintVisualizerHelpEv, ptr noundef @.str.20)
  call void @_ZN6open3d7utility6Logger8LogInfo_IJEEEvPKciS4_S4_DpOT_(ptr noundef @.str.12, i32 noundef 49, ptr noundef @__PRETTY_FUNCTION__._ZN6open3d13visualization29VisualizerWithCustomAnimation19PrintVisualizerHelpEv, ptr noundef @.str.32)
  call void @_ZN6open3d7utility6Logger8LogInfo_IJEEEvPKciS4_S4_DpOT_(ptr noundef @.str.12, i32 noundef 50, ptr noundef @__PRETTY_FUNCTION__._ZN6open3d13visualization29VisualizerWithCustomAnimation19PrintVisualizerHelpEv, ptr noundef @.str.33)
  call void @_ZN6open3d7utility6Logger8LogInfo_IJEEEvPKciS4_S4_DpOT_(ptr noundef @.str.12, i32 noundef 51, ptr noundef @__PRETTY_FUNCTION__._ZN6open3d13visualization29VisualizerWithCustomAnimation19PrintVisualizerHelpEv, ptr noundef @.str.23)
  call void @_ZN6open3d7utility6Logger8LogInfo_IJEEEvPKciS4_S4_DpOT_(ptr noundef @.str.12, i32 noundef 52, ptr noundef @__PRETTY_FUNCTION__._ZN6open3d13visualization29VisualizerWithCustomAnimation19PrintVisualizerHelpEv, ptr noundef @.str.34)
  call void @_ZN6open3d7utility6Logger8LogInfo_IJEEEvPKciS4_S4_DpOT_(ptr noundef @.str.12, i32 noundef 53, ptr noundef @__PRETTY_FUNCTION__._ZN6open3d13visualization29VisualizerWithCustomAnimation19PrintVisualizerHelpEv, ptr noundef @.str.20)
  ret void
}