; Function Attrs: mustprogress ssp uwtable
define void @_ZN6open3d13visualization29VisualizerWithCustomAnimation19PrintVisualizerHelpEv(ptr noundef nonnull align 8 dereferenceable(656) %0) unnamed_addr #2 align 2 {
  tail call void @_ZN6open3d13visualization10Visualizer19PrintVisualizerHelpEv(ptr noundef nonnull align 8 dereferenceable(456) %0)
  tail call void @_ZN6open3d7utility6Logger8LogInfo_IJEEEvPKciS4_S4_DpOT_(ptr noundef nonnull @.str.12, i32 noundef 29, ptr noundef nonnull @__PRETTY_FUNCTION__._ZN6open3d13visualization29VisualizerWithCustomAnimation19PrintVisualizerHelpEv, ptr noundef nonnull @.str.13)
  tail call void @_ZN6open3d7utility6Logger8LogInfo_IJEEEvPKciS4_S4_DpOT_(ptr noundef nonnull @.str.12, i32 noundef 30, ptr noundef nonnull @__PRETTY_FUNCTION__._ZN6open3d13visualization29VisualizerWithCustomAnimation19PrintVisualizerHelpEv, ptr noundef nonnull @.str.14)
  tail call void @_ZN6open3d7utility6Logger8LogInfo_IJEEEvPKciS4_S4_DpOT_(ptr noundef nonnull @.str.12, i32 noundef 31, ptr noundef nonnull @__PRETTY_FUNCTION__._ZN6open3d13visualization29VisualizerWithCustomAnimation19PrintVisualizerHelpEv, ptr noundef nonnull @.str.15)
  tail call void @_ZN6open3d7utility6Logger8LogInfo_IJEEEvPKciS4_S4_DpOT_(ptr noundef nonnull @.str.12, i32 noundef 32, ptr noundef nonnull @__PRETTY_FUNCTION__._ZN6open3d13visualization29VisualizerWithCustomAnimation19PrintVisualizerHelpEv, ptr noundef nonnull @.str.16)
  tail call void @_ZN6open3d7utility6Logger8LogInfo_IJEEEvPKciS4_S4_DpOT_(ptr noundef nonnull @.str.12, i32 noundef 33, ptr noundef nonnull @__PRETTY_FUNCTION__._ZN6open3d13visualization29VisualizerWithCustomAnimation19PrintVisualizerHelpEv, ptr noundef nonnull @.str.17)
  tail call void @_ZN6open3d7utility6Logger8LogInfo_IJEEEvPKciS4_S4_DpOT_(ptr noundef nonnull @.str.12, i32 noundef 34, ptr noundef nonnull @__PRETTY_FUNCTION__._ZN6open3d13visualization29VisualizerWithCustomAnimation19PrintVisualizerHelpEv, ptr noundef nonnull @.str.18)
  tail call void @_ZN6open3d7utility6Logger8LogInfo_IJEEEvPKciS4_S4_DpOT_(ptr noundef nonnull @.str.12, i32 noundef 35, ptr noundef nonnull @__PRETTY_FUNCTION__._ZN6open3d13visualization29VisualizerWithCustomAnimation19PrintVisualizerHelpEv, ptr noundef nonnull @.str.19)
  tail call void @_ZN6open3d7utility6Logger8LogInfo_IJEEEvPKciS4_S4_DpOT_(ptr noundef nonnull @.str.12, i32 noundef 36, ptr noundef nonnull @__PRETTY_FUNCTION__._ZN6open3d13visualization29VisualizerWithCustomAnimation19PrintVisualizerHelpEv, ptr noundef nonnull @.str.20)
  tail call void @_ZN6open3d7utility6Logger8LogInfo_IJEEEvPKciS4_S4_DpOT_(ptr noundef nonnull @.str.12, i32 noundef 37, ptr noundef nonnull @__PRETTY_FUNCTION__._ZN6open3d13visualization29VisualizerWithCustomAnimation19PrintVisualizerHelpEv, ptr noundef nonnull @.str.21)
  tail call void @_ZN6open3d7utility6Logger8LogInfo_IJEEEvPKciS4_S4_DpOT_(ptr noundef nonnull @.str.12, i32 noundef 38, ptr noundef nonnull @__PRETTY_FUNCTION__._ZN6open3d13visualization29VisualizerWithCustomAnimation19PrintVisualizerHelpEv, ptr noundef nonnull @.str.22)
  tail call void @_ZN6open3d7utility6Logger8LogInfo_IJEEEvPKciS4_S4_DpOT_(ptr noundef nonnull @.str.12, i32 noundef 39, ptr noundef nonnull @__PRETTY_FUNCTION__._ZN6open3d13visualization29VisualizerWithCustomAnimation19PrintVisualizerHelpEv, ptr noundef nonnull @.str.23)
  tail call void @_ZN6open3d7utility6Logger8LogInfo_IJEEEvPKciS4_S4_DpOT_(ptr noundef nonnull @.str.12, i32 noundef 40, ptr noundef nonnull @__PRETTY_FUNCTION__._ZN6open3d13visualization29VisualizerWithCustomAnimation19PrintVisualizerHelpEv, ptr noundef nonnull @.str.24)
  tail call void @_ZN6open3d7utility6Logger8LogInfo_IJEEEvPKciS4_S4_DpOT_(ptr noundef nonnull @.str.12, i32 noundef 41, ptr noundef nonnull @__PRETTY_FUNCTION__._ZN6open3d13visualization29VisualizerWithCustomAnimation19PrintVisualizerHelpEv, ptr noundef nonnull @.str.25)
  tail call void @_ZN6open3d7utility6Logger8LogInfo_IJEEEvPKciS4_S4_DpOT_(ptr noundef nonnull @.str.12, i32 noundef 42, ptr noundef nonnull @__PRETTY_FUNCTION__._ZN6open3d13visualization29VisualizerWithCustomAnimation19PrintVisualizerHelpEv, ptr noundef nonnull @.str.26)
  tail call void @_ZN6open3d7utility6Logger8LogInfo_IJEEEvPKciS4_S4_DpOT_(ptr noundef nonnull @.str.12, i32 noundef 43, ptr noundef nonnull @__PRETTY_FUNCTION__._ZN6open3d13visualization29VisualizerWithCustomAnimation19PrintVisualizerHelpEv, ptr noundef nonnull @.str.27)
  tail call void @_ZN6open3d7utility6Logger8LogInfo_IJEEEvPKciS4_S4_DpOT_(ptr noundef nonnull @.str.12, i32 noundef 44, ptr noundef nonnull @__PRETTY_FUNCTION__._ZN6open3d13visualization29VisualizerWithCustomAnimation19PrintVisualizerHelpEv, ptr noundef nonnull @.str.28)
  tail call void @_ZN6open3d7utility6Logger8LogInfo_IJEEEvPKciS4_S4_DpOT_(ptr noundef nonnull @.str.12, i32 noundef 45, ptr noundef nonnull @__PRETTY_FUNCTION__._ZN6open3d13visualization29VisualizerWithCustomAnimation19PrintVisualizerHelpEv, ptr noundef nonnull @.str.29)
  tail call void @_ZN6open3d7utility6Logger8LogInfo_IJEEEvPKciS4_S4_DpOT_(ptr noundef nonnull @.str.12, i32 noundef 46, ptr noundef nonnull @__PRETTY_FUNCTION__._ZN6open3d13visualization29VisualizerWithCustomAnimation19PrintVisualizerHelpEv, ptr noundef nonnull @.str.30)
  tail call void @_ZN6open3d7utility6Logger8LogInfo_IJEEEvPKciS4_S4_DpOT_(ptr noundef nonnull @.str.12, i32 noundef 47, ptr noundef nonnull @__PRETTY_FUNCTION__._ZN6open3d13visualization29VisualizerWithCustomAnimation19PrintVisualizerHelpEv, ptr noundef nonnull @.str.31)
  tail call void @_ZN6open3d7utility6Logger8LogInfo_IJEEEvPKciS4_S4_DpOT_(ptr noundef nonnull @.str.12, i32 noundef 48, ptr noundef nonnull @__PRETTY_FUNCTION__._ZN6open3d13visualization29VisualizerWithCustomAnimation19PrintVisualizerHelpEv, ptr noundef nonnull @.str.20)
  tail call void @_ZN6open3d7utility6Logger8LogInfo_IJEEEvPKciS4_S4_DpOT_(ptr noundef nonnull @.str.12, i32 noundef 49, ptr noundef nonnull @__PRETTY_FUNCTION__._ZN6open3d13visualization29VisualizerWithCustomAnimation19PrintVisualizerHelpEv, ptr noundef nonnull @.str.32)
  tail call void @_ZN6open3d7utility6Logger8LogInfo_IJEEEvPKciS4_S4_DpOT_(ptr noundef nonnull @.str.12, i32 noundef 50, ptr noundef nonnull @__PRETTY_FUNCTION__._ZN6open3d13visualization29VisualizerWithCustomAnimation19PrintVisualizerHelpEv, ptr noundef nonnull @.str.33)
  tail call void @_ZN6open3d7utility6Logger8LogInfo_IJEEEvPKciS4_S4_DpOT_(ptr noundef nonnull @.str.12, i32 noundef 51, ptr noundef nonnull @__PRETTY_FUNCTION__._ZN6open3d13visualization29VisualizerWithCustomAnimation19PrintVisualizerHelpEv, ptr noundef nonnull @.str.23)
  tail call void @_ZN6open3d7utility6Logger8LogInfo_IJEEEvPKciS4_S4_DpOT_(ptr noundef nonnull @.str.12, i32 noundef 52, ptr noundef nonnull @__PRETTY_FUNCTION__._ZN6open3d13visualization29VisualizerWithCustomAnimation19PrintVisualizerHelpEv, ptr noundef nonnull @.str.34)
  tail call void @_ZN6open3d7utility6Logger8LogInfo_IJEEEvPKciS4_S4_DpOT_(ptr noundef nonnull @.str.12, i32 noundef 53, ptr noundef nonnull @__PRETTY_FUNCTION__._ZN6open3d13visualization29VisualizerWithCustomAnimation19PrintVisualizerHelpEv, ptr noundef nonnull @.str.20)
  ret void
}